; Function Attrs: mustprogress nounwind uwtable
define dso_local void @_ZNK4llvm5APIntmlERKS0_(ptr dead_on_unwind noalias writable writeonly sret(%"class.llvm::APInt") align 8 captures(none) initializes((0, 12)) %0, ptr noundef nonnull readonly align 8 captures(none) dereferenceable(12) %1, ptr noundef nonnull readonly align 8 captures(none) dereferenceable(12) %2) local_unnamed_addr #0 align 2 {
  %4 = getelementptr inbounds nuw i8, ptr %1, i64 8
  %5 = load i32, ptr %4, align 8
  %6 = icmp ult i32 %5, 65
  br i1 %6, label %_ZN4llvm5APIntC2Ejmbb.exit, label %.lr.ph.preheader.i

_ZN4llvm5APIntC2Ejmbb.exit:                       ; preds = %3
  %7 = load i64, ptr %1, align 8
  %8 = load i64, ptr %2, align 8
  %9 = mul i64 %8, %7
  %10 = getelementptr inbounds nuw i8, ptr %0, i64 8
  store i32 %5, ptr %10, align 8
  %11 = add nuw nsw i32 %5, 63
  %12 = and i32 %11, 63
  %13 = xor i32 %12, 63
  %14 = zext nneg i32 %13 to i64
  %15 = lshr i64 -1, %14
  %16 = icmp eq i32 %5, 0
  %spec.store.select.i.i = select i1 %16, i64 0, i64 %15
  %17 = and i64 %9, %spec.store.select.i.i
  store i64 %17, ptr %0, align 8
  br label %44

.lr.ph.preheader.i:                               ; preds = %3
  %18 = zext i32 %5 to i64
  %19 = add nuw nsw i64 %18, 63
  %20 = lshr i64 %19, 6
  %21 = trunc nuw nsw i64 %20 to i32
  %22 = shl nuw nsw i64 %20, 3
  %23 = tail call noalias noundef nonnull ptr @_Znam(i64 noundef %22) #21
  %24 = getelementptr inbounds nuw i8, ptr %0, i64 8
  store i32 %5, ptr %24, align 8
  store ptr %23, ptr %0, align 8
  %25 = load ptr, ptr %1, align 8
  %26 = load ptr, ptr %2, align 8
  br label %.lr.ph.i

.lr.ph.i:                                         ; preds = %.lr.ph.i, %.lr.ph.preheader.i
  %indvars.iv.i = phi i64 [ 0, %.lr.ph.preheader.i ], [ %indvars.iv.next.i, %.lr.ph.i ]
  %27 = getelementptr inbounds nuw i64, ptr %23, i64 %indvars.iv.i
  %28 = getelementptr inbounds nuw i64, ptr %26, i64 %indvars.iv.i
  %29 = load i64, ptr %28, align 8
  %30 = icmp ne i64 %indvars.iv.i, 0
  %31 = trunc i64 %indvars.iv.i to i32
  %32 = sub i32 %21, %31
  %33 = tail call noundef i32 @_ZN4llvm5APInt14tcMultiplyPartEPmPKmmmjjb(ptr noundef nonnull %27, ptr noundef readonly %25, i64 noundef %29, i64 noundef 0, i32 noundef %21, i32 noundef %32, i1 noundef zeroext %30)
  %indvars.iv.next.i = add nuw nsw i64 %indvars.iv.i, 1
  %exitcond.not.i = icmp eq i64 %indvars.iv.next.i, %20
  br i1 %exitcond.not.i, label %_ZN4llvm5APInt15clearUnusedBitsEv.exit, label %.lr.ph.i, !llvm.loop !14

_ZN4llvm5APInt15clearUnusedBitsEv.exit:           ; preds = %.lr.ph.i
  %34 = add i32 %5, 63
  %35 = and i32 %34, 63
  %36 = xor i32 %35, 63
  %37 = zext nneg i32 %36 to i64
  %38 = lshr i64 -1, %37
  %39 = add nuw nsw i64 %20, 4294967295
  %40 = and i64 %39, 4294967295
  %41 = getelementptr inbounds nuw i64, ptr %23, i64 %40
  %42 = load i64, ptr %41, align 8
  %43 = and i64 %42, %38
  store i64 %43, ptr %41, align 8
  br label %44

44:                                               ; preds = %_ZN4llvm5APInt15clearUnusedBitsEv.exit, %_ZN4llvm5APIntC2Ejmbb.exit
  ret void
}